; Function Attrs: mustprogress nounwind uwtable
define hidden void @_ZN17demodulator_indexD2Ev(ptr nocapture noundef nonnull align 8 dereferenceable(56) %this) unnamed_addr #3 align 2 personality ptr @__gxx_personality_v0 {
entry:
  invoke void @_ZN17demodulator_index5resetEv(ptr noundef nonnull align 8 dereferenceable(56) %this)
          to label %invoke.cont unwind label %terminate.lpad

invoke.cont:                                      ; preds = %entry
  %m_bwd_index = getelementptr inbounds i8, ptr %this, i64 32
  %0 = load ptr, ptr %m_bwd_index, align 8
  %cmp.i.i.i.i = icmp eq ptr %0, null
  br i1 %cmp.i.i.i.i, label %_ZN7obj_mapI9func_declP8uint_setED2Ev.exit, label %for.cond.preheader.i.i.i.i

for.cond.preheader.i.i.i.i:                       ; preds = %invoke.cont
  invoke void @_ZN6memory10deallocateEPv(ptr noundef nonnull %0)
          to label %_ZN7obj_mapI9func_declP8uint_setED2Ev.exit unwind label %terminate.lpad.i.i

terminate.lpad.i.i:                               ; preds = %for.cond.preheader.i.i.i.i
  %1 = landingpad { ptr, i32 }
          catch ptr null
  %2 = extractvalue { ptr, i32 } %1, 0
  tail call void @__clang_call_terminate(ptr %2) #18
  unreachable

_ZN7obj_mapI9func_declP8uint_setED2Ev.exit:       ; preds = %invoke.cont, %for.cond.preheader.i.i.i.i
  store ptr null, ptr %m_bwd_index, align 8
  %m_fwd_index = getelementptr inbounds i8, ptr %this, i64 8
  %3 = load ptr, ptr %m_fwd_index, align 8
  %cmp.i.i.i.i1 = icmp eq ptr %3, null
  br i1 %cmp.i.i.i.i1, label %_ZN7obj_mapI9func_declP8uint_setED2Ev.exit4, label %for.cond.preheader.i.i.i.i2

for.cond.preheader.i.i.i.i2:                      ; preds = %_ZN7obj_mapI9func_declP8uint_setED2Ev.exit
  invoke void @_ZN6memory10deallocateEPv(ptr noundef nonnull %3)
          to label %_ZN7obj_mapI9func_declP8uint_setED2Ev.exit4 unwind label %terminate.lpad.i.i3

terminate.lpad.i.i3:                              ; preds = %for.cond.preheader.i.i.i.i2
  %4 = landingpad { ptr, i32 }
          catch ptr null
  %5 = extractvalue { ptr, i32 } %4, 0
  tail call void @__clang_call_terminate(ptr %5) #18
  unreachable

_ZN7obj_mapI9func_declP8uint_setED2Ev.exit4:      ; preds = %_ZN7obj_mapI9func_declP8uint_setED2Ev.exit, %for.cond.preheader.i.i.i.i2
  store ptr null, ptr %m_fwd_index, align 8
  ret void

terminate.lpad:                                   ; preds = %entry
  %6 = landingpad { ptr, i32 }
          catch ptr null
  %7 = extractvalue { ptr, i32 } %6, 0
  tail call void @__clang_call_terminate(ptr %7) #18
  unreachable
}